target datalayout = "e-m:e-p270:32:32-p271:32:32-p272:64:64-i64:64-i128:128-f80:128-n8:16:32:64-S128"
target triple = "x86_64-pc-linux-gnu"

%struct.Vec_Int_t_ = type { i32, i32, ptr }

; Function Attrs: inlinehint nounwind uwtable
define internal i32 @Vec_IntEntry(ptr noundef %0, i32 noundef %1) #3 {
  %3 = alloca ptr, align 8
  %4 = alloca i32, align 4
  store ptr %0, ptr %3, align 8, !tbaa !43
  store i32 %1, ptr %4, align 4, !tbaa !42
  %5 = load ptr, ptr %3, align 8, !tbaa !43
  %6 = getelementptr inbounds nuw %struct.Vec_Int_t_, ptr %5, i32 0, i32 2
  %7 = load ptr, ptr %6, align 8, !tbaa !46
  %8 = load i32, ptr %4, align 4, !tbaa !42
  %9 = sext i32 %8 to i64
  %10 = getelementptr inbounds i32, ptr %7, i64 %9
  %11 = load i32, ptr %10, align 4, !tbaa !42
  ret i32 %11
}

; Function Attrs: nounwind uwtable
define internal i32 @Vec_VecSortCompare3(ptr noundef %0, ptr noundef %1) #0 {
  %3 = alloca i32, align 4
  %4 = alloca ptr, align 8
  %5 = alloca ptr, align 8
  store ptr %0, ptr %4, align 8, !tbaa !126
  store ptr %1, ptr %5, align 8, !tbaa !126
  %6 = load ptr, ptr %4, align 8, !tbaa !126
  %7 = load ptr, ptr %6, align 8, !tbaa !43
  %8 = call i32 @Vec_IntEntry(ptr noundef %7, i32 noundef 0)
  %9 = load ptr, ptr %5, align 8, !tbaa !126
  %10 = load ptr, ptr %9, align 8, !tbaa !43
  %11 = call i32 @Vec_IntEntry(ptr noundef %10, i32 noundef 0)
  %12 = icmp slt i32 %8, %11
  br i1 %12, label %13, label %14

13:                                               ; preds = %2
  store i32 -1, ptr %3, align 4
  br label %24

14:                                               ; preds = %2
  %15 = load ptr, ptr %4, align 8, !tbaa !126
  %16 = load ptr, ptr %15, align 8, !tbaa !43
  %17 = call i32 @Vec_IntEntry(ptr noundef %16, i32 noundef 0)
  %18 = load ptr, ptr %5, align 8, !tbaa !126
  %19 = load ptr, ptr %18, align 8, !tbaa !43
  %20 = call i32 @Vec_IntEntry(ptr noundef %19, i32 noundef 0)
  %21 = icmp sgt i32 %17, %20
  br i1 %21, label %22, label %23

22:                                               ; preds = %14
  store i32 1, ptr %3, align 4
  br label %24

23:                                               ; preds = %14
  store i32 0, ptr %3, align 4
  br label %24

24:                                               ; preds = %23, %22, %13
  %25 = load i32, ptr %3, align 4
  ret i32 %25
}