; Function Attrs: mustprogress nofree norecurse nosync nounwind willreturn memory(read, inaccessiblemem: none) uwtable
define internal range(i32 -1, 2) i32 @Vec_VecSortCompare3(ptr noundef readonly captures(none) %0, ptr noundef readonly captures(none) %1) #11 {
  %3 = load ptr, ptr %0, align 8, !tbaa !120
  %4 = getelementptr i8, ptr %3, i64 8
  %.val6 = load ptr, ptr %4, align 8, !tbaa !39
  %5 = load i32, ptr %.val6, align 4, !tbaa !43
  %6 = load ptr, ptr %1, align 8, !tbaa !120
  %7 = getelementptr i8, ptr %6, i64 8
  %.val5 = load ptr, ptr %7, align 8, !tbaa !39
  %8 = load i32, ptr %.val5, align 4, !tbaa !43
  %.0 = tail call i32 @llvm.scmp.i32.i32(i32 %5, i32 %8)
  ret i32 %.0
}